; Function Attrs: nounwind uwtable
define zeroext range(i8 0, 2) i8 @l___private_Lean_Compiler_InlineAttrs_0__Lean_Compiler_hasInlineAttrCore(ptr noundef %0, i8 noundef zeroext %1, ptr noundef %2) local_unnamed_addr #1 {
  %4 = load i8, ptr @l_Lean_Compiler_instInhabitedInlineAttributeKind, align 1, !tbaa !18
  %5 = load ptr, ptr @l_Lean_Compiler_setInlineAttribute___closed__1, align 8, !tbaa !10
  %6 = zext i8 %4 to i64
  %7 = shl nuw nsw i64 %6, 1
  %8 = or disjoint i64 %7, 1
  %9 = inttoptr i64 %8 to ptr
  %10 = tail call ptr @l_Lean_EnumAttributes_getValue___rarg(ptr noundef nonnull %9, ptr noundef %5, ptr noundef %0, ptr noundef %2) #7
  %11 = ptrtoint ptr %10 to i64
  %12 = and i64 %11, 1
  %.not.i18 = icmp eq i64 %12, 0
  br i1 %.not.i18, label %16, label %13

13:                                               ; preds = %3
  %14 = lshr i64 %11, 1
  %15 = trunc i64 %14 to i32
  br label %lean_obj_tag.exit

16:                                               ; preds = %3
  %17 = getelementptr i8, ptr %10, i64 4
  %.val.i = load i32, ptr %17, align 4
  %18 = lshr i32 %.val.i, 24
  br label %lean_obj_tag.exit

lean_obj_tag.exit:                                ; preds = %13, %16
  %.0.i = phi i32 [ %15, %13 ], [ %18, %16 ]
  %19 = icmp eq i32 %.0.i, 0
  br i1 %19, label %57, label %20

20:                                               ; preds = %lean_obj_tag.exit
  %21 = getelementptr inbounds nuw i8, ptr %10, i64 8
  %22 = load ptr, ptr %21, align 8, !tbaa !10
  %23 = ptrtoint ptr %22 to i64
  %24 = and i64 %23, 1
  %.not = icmp eq i64 %24, 0
  br i1 %.not, label %25, label %lean_inc.exit

25:                                               ; preds = %20
  %.val.i19 = load i32, ptr %22, align 4, !tbaa !4
  %26 = icmp sgt i32 %.val.i19, 0
  br i1 %26, label %27, label %29, !prof !9

27:                                               ; preds = %25
  %28 = add nuw i32 %.val.i19, 1
  store i32 %28, ptr %22, align 4, !tbaa !4
  br label %lean_inc.exit

29:                                               ; preds = %25
  %.not.i20 = icmp eq i32 %.val.i19, 0
  br i1 %.not.i20, label %lean_inc.exit, label %30

30:                                               ; preds = %29
  tail call void @lean_inc_ref_cold(ptr noundef nonnull %22) #7
  br label %lean_inc.exit

lean_inc.exit:                                    ; preds = %30, %29, %27, %20
  br i1 %.not.i18, label %31, label %lean_dec.exit15

31:                                               ; preds = %lean_inc.exit
  %32 = load i32, ptr %10, align 4, !tbaa !4
  %33 = icmp sgt i32 %32, 1
  br i1 %33, label %34, label %36, !prof !9

34:                                               ; preds = %31
  %35 = add nsw i32 %32, -1
  store i32 %35, ptr %10, align 4, !tbaa !4
  br label %lean_dec.exit15

36:                                               ; preds = %31
  %.not.i = icmp eq i32 %32, 0
  br i1 %.not.i, label %lean_dec.exit15, label %37

37:                                               ; preds = %36
  tail call void @lean_dec_ref_cold(ptr noundef nonnull %10) #7
  br label %lean_dec.exit15

lean_dec.exit15:                                  ; preds = %37, %36, %34, %lean_inc.exit
  %38 = lshr i64 %23, 1
  %39 = trunc i64 %38 to i8
  br i1 %.not, label %40, label %lean_dec.exit

40:                                               ; preds = %lean_dec.exit15
  %41 = load i32, ptr %22, align 4, !tbaa !4
  %42 = icmp sgt i32 %41, 1
  br i1 %42, label %43, label %45, !prof !9

43:                                               ; preds = %40
  %44 = add nsw i32 %41, -1
  store i32 %44, ptr %22, align 4, !tbaa !4
  br label %lean_dec.exit

45:                                               ; preds = %40
  %.not.i16 = icmp eq i32 %41, 0
  br i1 %.not.i16, label %lean_dec.exit, label %46

46:                                               ; preds = %45
  tail call void @lean_dec_ref_cold(ptr noundef nonnull %22) #7
  br label %lean_dec.exit

lean_dec.exit:                                    ; preds = %46, %45, %43, %lean_dec.exit15
  switch i8 %1, label %50 [
    i8 0, label %l_Lean_Compiler_InlineAttributeKind_toCtorIdx.exit.i
    i8 1, label %47
    i8 2, label %48
    i8 3, label %49
  ]

47:                                               ; preds = %lean_dec.exit
  br label %l_Lean_Compiler_InlineAttributeKind_toCtorIdx.exit.i

48:                                               ; preds = %lean_dec.exit
  br label %l_Lean_Compiler_InlineAttributeKind_toCtorIdx.exit.i

49:                                               ; preds = %lean_dec.exit
  br label %l_Lean_Compiler_InlineAttributeKind_toCtorIdx.exit.i

50:                                               ; preds = %lean_dec.exit
  br label %l_Lean_Compiler_InlineAttributeKind_toCtorIdx.exit.i

l_Lean_Compiler_InlineAttributeKind_toCtorIdx.exit.i: ; preds = %50, %49, %48, %47, %lean_dec.exit
  %.0.i9.i = phi ptr [ inttoptr (i64 9 to ptr), %50 ], [ inttoptr (i64 7 to ptr), %49 ], [ inttoptr (i64 5 to ptr), %48 ], [ inttoptr (i64 3 to ptr), %47 ], [ inttoptr (i64 1 to ptr), %lean_dec.exit ]
  switch i8 %39, label %54 [
    i8 0, label %l_Lean_Compiler_beqInlineAttributeKind____x40_Lean_Compiler_InlineAttrs___hyg_18_.exit
    i8 1, label %51
    i8 2, label %52
    i8 3, label %53
  ]

51:                                               ; preds = %l_Lean_Compiler_InlineAttributeKind_toCtorIdx.exit.i
  br label %l_Lean_Compiler_beqInlineAttributeKind____x40_Lean_Compiler_InlineAttrs___hyg_18_.exit

52:                                               ; preds = %l_Lean_Compiler_InlineAttributeKind_toCtorIdx.exit.i
  br label %l_Lean_Compiler_beqInlineAttributeKind____x40_Lean_Compiler_InlineAttrs___hyg_18_.exit

53:                                               ; preds = %l_Lean_Compiler_InlineAttributeKind_toCtorIdx.exit.i
  br label %l_Lean_Compiler_beqInlineAttributeKind____x40_Lean_Compiler_InlineAttrs___hyg_18_.exit

54:                                               ; preds = %l_Lean_Compiler_InlineAttributeKind_toCtorIdx.exit.i
  br label %l_Lean_Compiler_beqInlineAttributeKind____x40_Lean_Compiler_InlineAttrs___hyg_18_.exit

l_Lean_Compiler_beqInlineAttributeKind____x40_Lean_Compiler_InlineAttrs___hyg_18_.exit: ; preds = %l_Lean_Compiler_InlineAttributeKind_toCtorIdx.exit.i, %51, %52, %53, %54
  %.0.i10.i = phi ptr [ inttoptr (i64 9 to ptr), %54 ], [ inttoptr (i64 7 to ptr), %53 ], [ inttoptr (i64 5 to ptr), %52 ], [ inttoptr (i64 3 to ptr), %51 ], [ inttoptr (i64 1 to ptr), %l_Lean_Compiler_InlineAttributeKind_toCtorIdx.exit.i ]
  %55 = icmp eq ptr %.0.i9.i, %.0.i10.i
  %56 = zext i1 %55 to i8
  br label %57

57:                                               ; preds = %lean_obj_tag.exit, %l_Lean_Compiler_beqInlineAttributeKind____x40_Lean_Compiler_InlineAttrs___hyg_18_.exit
  %.0 = phi i8 [ %56, %l_Lean_Compiler_beqInlineAttributeKind____x40_Lean_Compiler_InlineAttrs___hyg_18_.exit ], [ 0, %lean_obj_tag.exit ]
  ret i8 %.0
}